; Function Attrs: nofree nounwind uwtable
define noundef i32 @evutil_vsnprintf(ptr noundef captures(none) %0, i64 noundef %1, ptr noundef readonly captures(none) %2, ptr noundef %3) local_unnamed_addr #5 {
  %.not = icmp eq i64 %1, 0
  br i1 %.not, label %9, label %5

5:                                                ; preds = %4
  %6 = tail call i32 @vsnprintf(ptr noundef %0, i64 noundef %1, ptr noundef %2, ptr noundef %3) #30
  %7 = getelementptr i8, ptr %0, i64 %1
  %8 = getelementptr i8, ptr %7, i64 -1
  store i8 0, ptr %8, align 1
  br label %9

9:                                                ; preds = %4, %5
  %.0 = phi i32 [ %6, %5 ], [ 0, %4 ]
  ret i32 %.0
}